; Function Attrs: mustprogress nounwind uwtable
define hidden void @_ZN4MeshD0Ev(ptr noundef nonnull align 8 dereferenceable(64) %0) unnamed_addr #6 align 2 personality ptr @__gxx_personality_v0 {
  store ptr getelementptr inbounds inrange(-16, 16) (i8, ptr @_ZTV4Mesh, i64 16), ptr %0, align 8
  %2 = getelementptr inbounds i8, ptr %0, i64 40
  %3 = load ptr, ptr %2, align 8
  %4 = getelementptr inbounds i8, ptr %0, i64 48
  %5 = load ptr, ptr %4, align 8
  %.not4.i.i.i.i.i = icmp eq ptr %3, %5
  br i1 %.not4.i.i.i.i.i, label %_ZSt8_DestroyIPSt6vectorIiSaIiEES2_EvT_S4_RSaIT0_E.exit.i.i, label %.lr.ph.i.i.i.i.i

.lr.ph.i.i.i.i.i:                                 ; preds = %1, %_ZSt8_DestroyISt6vectorIiSaIiEEEvPT_.exit.i.i.i.i.i
  %.05.i.i.i.i.i = phi ptr [ %8, %_ZSt8_DestroyISt6vectorIiSaIiEEEvPT_.exit.i.i.i.i.i ], [ %3, %1 ]
  %6 = load ptr, ptr %.05.i.i.i.i.i, align 8
  %.not.i.i.i.i.i.i.i.i.i = icmp eq ptr %6, null
  br i1 %.not.i.i.i.i.i.i.i.i.i, label %_ZSt8_DestroyISt6vectorIiSaIiEEEvPT_.exit.i.i.i.i.i, label %7

7:                                                ; preds = %.lr.ph.i.i.i.i.i
  tail call void @_ZdlPv(ptr noundef nonnull %6) #12
  br label %_ZSt8_DestroyISt6vectorIiSaIiEEEvPT_.exit.i.i.i.i.i

_ZSt8_DestroyISt6vectorIiSaIiEEEvPT_.exit.i.i.i.i.i: ; preds = %7, %.lr.ph.i.i.i.i.i
  %8 = getelementptr inbounds i8, ptr %.05.i.i.i.i.i, i64 24
  %.not.i.i.i.i.i = icmp eq ptr %8, %5
  br i1 %.not.i.i.i.i.i, label %_ZSt8_DestroyIPSt6vectorIiSaIiEES2_EvT_S4_RSaIT0_E.exitthread-pre-split.i.i, label %.lr.ph.i.i.i.i.i, !llvm.loop !5

_ZSt8_DestroyIPSt6vectorIiSaIiEES2_EvT_S4_RSaIT0_E.exitthread-pre-split.i.i: ; preds = %_ZSt8_DestroyISt6vectorIiSaIiEEEvPT_.exit.i.i.i.i.i
  %.pr.i.i = load ptr, ptr %2, align 8
  br label %_ZSt8_DestroyIPSt6vectorIiSaIiEES2_EvT_S4_RSaIT0_E.exit.i.i

_ZSt8_DestroyIPSt6vectorIiSaIiEES2_EvT_S4_RSaIT0_E.exit.i.i: ; preds = %_ZSt8_DestroyIPSt6vectorIiSaIiEES2_EvT_S4_RSaIT0_E.exitthread-pre-split.i.i, %1
  %9 = phi ptr [ %.pr.i.i, %_ZSt8_DestroyIPSt6vectorIiSaIiEES2_EvT_S4_RSaIT0_E.exitthread-pre-split.i.i ], [ %3, %1 ]
  %.not.i.i.i.i = icmp eq ptr %9, null
  br i1 %.not.i.i.i.i, label %_ZNSt6vectorIS_IiSaIiEESaIS1_EED2Ev.exit.i, label %10

10:                                               ; preds = %_ZSt8_DestroyIPSt6vectorIiSaIiEES2_EvT_S4_RSaIT0_E.exit.i.i
  tail call void @_ZdlPv(ptr noundef nonnull %9) #12
  br label %_ZNSt6vectorIS_IiSaIiEESaIS1_EED2Ev.exit.i

_ZNSt6vectorIS_IiSaIiEESaIS1_EED2Ev.exit.i:       ; preds = %10, %_ZSt8_DestroyIPSt6vectorIiSaIiEES2_EvT_S4_RSaIT0_E.exit.i.i
  %11 = getelementptr inbounds i8, ptr %0, i64 16
  %12 = load ptr, ptr %11, align 8
  %.not.i.i.i1.i = icmp eq ptr %12, null
  br i1 %.not.i.i.i1.i, label %_ZN4MeshD2Ev.exit, label %13

13:                                               ; preds = %_ZNSt6vectorIS_IiSaIiEESaIS1_EED2Ev.exit.i
  tail call void @_ZdlPv(ptr noundef nonnull %12) #12
  br label %_ZN4MeshD2Ev.exit

_ZN4MeshD2Ev.exit:                                ; preds = %_ZNSt6vectorIS_IiSaIiEESaIS1_EED2Ev.exit.i, %13
  tail call void @_ZdlPv(ptr noundef nonnull %0) #12
  ret void
}